; Function Attrs: nounwind uwtable
define dso_local void @bgrewriteaofCommand(ptr noundef %0) local_unnamed_addr #0 {
  %2 = load i32, ptr getelementptr inbounds nuw (i8, ptr @server, i64 308), align 4, !tbaa !93
  %3 = icmp eq i32 %2, 2
  br i1 %3, label %4, label %5

4:                                                ; preds = %1
  tail call void @addReplyError(ptr noundef %0, ptr noundef nonnull @.str.161) #20
  br label %16

5:                                                ; preds = %1
  %6 = tail call i32 @hasActiveChildProcess() #20
  %7 = icmp ne i32 %6, 0
  %8 = load i32, ptr getelementptr inbounds nuw (i8, ptr @server, i64 220), align 4
  %9 = icmp ne i32 %8, 0
  %or.cond = select i1 %7, i1 true, i1 %9
  br i1 %or.cond, label %10, label %11

10:                                               ; preds = %5
  store i32 1, ptr getelementptr inbounds nuw (i8, ptr @server, i64 6596), align 4, !tbaa !98
  store i64 0, ptr getelementptr inbounds nuw (i8, ptr @server, i64 2656), align 8, !tbaa !91
  tail call void @addReplyStatus(ptr noundef %0, ptr noundef nonnull @.str.162) #20
  br label %16

11:                                               ; preds = %5
  %12 = tail call i32 @rewriteAppendOnlyFileBackground()
  %13 = icmp eq i32 %12, 0
  br i1 %13, label %14, label %15

14:                                               ; preds = %11
  tail call void @addReplyStatus(ptr noundef %0, ptr noundef nonnull @.str.163) #20
  br label %16

15:                                               ; preds = %11
  tail call void @addReplyError(ptr noundef %0, ptr noundef nonnull @.str.164) #20
  br label %16

16:                                               ; preds = %10, %15, %14, %4
  ret void
}